; Function Attrs: mustprogress nofree norecurse nosync nounwind willreturn memory(readwrite, inaccessiblemem: none) uwtable
define dso_local range(i32 -30, 1) i32 @onig_set_callout_data_by_callout_args_self(ptr noundef readonly captures(none) %0, i32 noundef %1, i32 noundef %2, ptr noundef readonly captures(none) %3) local_unnamed_addr #13 {
  %5 = getelementptr inbounds nuw i8, ptr %0, i64 8
  %6 = load i32, ptr %5, align 8, !tbaa !52
  %7 = icmp slt i32 %6, 1
  br i1 %7, label %onig_set_callout_data.exit, label %8

8:                                                ; preds = %4
  %9 = getelementptr inbounds nuw i8, ptr %0, i64 72
  %10 = load ptr, ptr %9, align 8, !tbaa !43
  %11 = getelementptr inbounds nuw i8, ptr %10, i64 72
  %12 = load ptr, ptr %11, align 8, !tbaa !48
  %13 = getelementptr inbounds nuw i8, ptr %12, i64 56
  %14 = load ptr, ptr %13, align 8, !tbaa !41
  %15 = zext nneg i32 %6 to i64
  %16 = getelementptr %struct.CalloutData, ptr %14, i64 %15
  %17 = getelementptr i8, ptr %16, i64 -128
  %18 = getelementptr i8, ptr %16, i64 -120
  %19 = sext i32 %1 to i64
  %20 = getelementptr inbounds [5 x %struct.anon], ptr %18, i64 0, i64 %19
  store i32 %2, ptr %20, align 8, !tbaa !53
  %21 = getelementptr inbounds nuw i8, ptr %20, i64 8
  tail call void @llvm.memcpy.p0.p0.i64(ptr noundef nonnull align 8 dereferenceable(16) %21, ptr noundef nonnull readonly align 8 dereferenceable(16) %3, i64 16, i1 false), !tbaa.struct !55
  %22 = getelementptr inbounds nuw i8, ptr %12, i64 48
  %23 = load i32, ptr %22, align 8, !tbaa !40
  store i32 %23, ptr %17, align 8, !tbaa !53
  br label %onig_set_callout_data.exit

onig_set_callout_data.exit:                       ; preds = %4, %8
  %.0.i = phi i32 [ 0, %8 ], [ -30, %4 ]
  ret i32 %.0.i
}